target datalayout = "e-m:e-p270:32:32-p271:32:32-p272:64:64-i64:64-i128:128-f80:128-n8:16:32:64-S128"
target triple = "x86_64-pc-linux-gnu"

%"struct.Luau::NotNull" = type { ptr }
%"struct.Luau::NotNull.5" = type { ptr }
%"struct.Luau::NotNull.6" = type { ptr }
%"struct.Luau::DataFlowGraph" = type { %"struct.Luau::NotNull.5", %"struct.Luau::NotNull.6", %"class.Luau::DenseHashMap", %"class.Luau::DenseHashMap.7", %"class.Luau::DenseHashMap.10", %"class.Luau::DenseHashMap", %"class.Luau::DenseHashMap.13" }
%"class.Luau::DenseHashMap.7" = type { %"class.Luau::detail::DenseHashTable.8" }
%"class.Luau::detail::DenseHashTable.8" = type <{ ptr, i64, i64, ptr, [8 x i8] }>
%"class.Luau::DenseHashMap.10" = type { %"class.Luau::detail::DenseHashTable.11" }
%"class.Luau::detail::DenseHashTable.11" = type <{ ptr, i64, i64, ptr, [8 x i8] }>
%"class.Luau::DenseHashMap" = type { %"class.Luau::detail::DenseHashTable" }
%"class.Luau::detail::DenseHashTable" = type <{ ptr, i64, i64, ptr, [8 x i8] }>
%"class.Luau::DenseHashMap.13" = type { %"class.Luau::detail::DenseHashTable.14" }
%"class.Luau::detail::DenseHashTable.14" = type <{ ptr, i64, i64, ptr, [8 x i8] }>
%"struct.Luau::Symbol" = type { ptr, %"struct.Luau::AstName" }
%"struct.Luau::AstName" = type { ptr }
%"struct.Luau::DataFlowGraphBuilder" = type { %"struct.Luau::DataFlowGraph", %"struct.Luau::NotNull.5", %"struct.Luau::NotNull.6", ptr, %"class.std::vector.43", %"class.std::vector.48", %"class.Luau::DenseHashMap.53" }
%"class.std::vector.43" = type { %"struct.std::_Vector_base.44" }
%"struct.std::_Vector_base.44" = type { %"struct.std::_Vector_base<std::unique_ptr<Luau::DfgScope>, std::allocator<std::unique_ptr<Luau::DfgScope>>>::_Vector_impl" }
%"struct.std::_Vector_base<std::unique_ptr<Luau::DfgScope>, std::allocator<std::unique_ptr<Luau::DfgScope>>>::_Vector_impl" = type { %"struct.std::_Vector_base<std::unique_ptr<Luau::DfgScope>, std::allocator<std::unique_ptr<Luau::DfgScope>>>::_Vector_impl_data" }
%"struct.std::_Vector_base<std::unique_ptr<Luau::DfgScope>, std::allocator<std::unique_ptr<Luau::DfgScope>>>::_Vector_impl_data" = type { ptr, ptr, ptr }
%"class.std::vector.48" = type { %"struct.std::_Vector_base.49" }
%"struct.std::_Vector_base.49" = type { %"struct.std::_Vector_base<Luau::DfgScope *, std::allocator<Luau::DfgScope *>>::_Vector_impl" }
%"struct.std::_Vector_base<Luau::DfgScope *, std::allocator<Luau::DfgScope *>>::_Vector_impl" = type { %"struct.std::_Vector_base<Luau::DfgScope *, std::allocator<Luau::DfgScope *>>::_Vector_impl_data" }
%"struct.std::_Vector_base<Luau::DfgScope *, std::allocator<Luau::DfgScope *>>::_Vector_impl_data" = type { ptr, ptr, ptr }
%"class.Luau::DenseHashMap.53" = type { %"class.Luau::detail::DenseHashTable.54" }
%"class.Luau::detail::DenseHashTable.54" = type <{ ptr, i64, i64, %"struct.Luau::Symbol", [8 x i8] }>
%"class.Luau::AstNode.base" = type <{ ptr, i32, %"struct.Luau::Location" }>
%"struct.Luau::Location" = type { %"struct.Luau::Position", %"struct.Luau::Position" }
%"struct.Luau::Position" = type { i32, i32 }
%"struct.Luau::DataFlowResult" = type { %"struct.Luau::NotNull", ptr }
%"struct.Luau::AstArray.91" = type { ptr, i64 }
%"class.Luau::AstExpr.base" = type { %"class.Luau::AstNode.base" }
%"class.Luau::AstExprInterpString" = type { %"class.Luau::AstExpr.base", %"struct.Luau::AstArray.121", %"struct.Luau::AstArray.91" }
%"struct.Luau::AstArray.121" = type { ptr, i64 }

; Function Attrs: mustprogress nounwind uwtable
define linkonce_odr dso_local noundef ptr @_ZNK4Luau7NotNullINS_8DefArenaEEptEv(ptr noundef nonnull align 8 dereferenceable(8) %0) #4 comdat align 2 {
  %2 = alloca ptr, align 8
  store ptr %0, ptr %2, align 8, !tbaa !231
  %3 = load ptr, ptr %2, align 8
  %4 = getelementptr inbounds nuw %"struct.Luau::NotNull.5", ptr %3, i32 0, i32 0
  %5 = load ptr, ptr %4, align 8, !tbaa !233
  ret ptr %5
}

; Function Attrs: mustprogress nounwind uwtable
define linkonce_odr dso_local noundef ptr @_ZNK4Luau8AstArrayIPNS_7AstExprEE3endEv(ptr noundef nonnull align 8 dereferenceable(16) %0) #4 comdat align 2 {
  %2 = alloca ptr, align 8
  store ptr %0, ptr %2, align 8, !tbaa !345
  %3 = load ptr, ptr %2, align 8
  %4 = getelementptr inbounds nuw %"struct.Luau::AstArray.91", ptr %3, i32 0, i32 0
  %5 = load ptr, ptr %4, align 8, !tbaa !426
  %6 = getelementptr inbounds nuw %"struct.Luau::AstArray.91", ptr %3, i32 0, i32 1
  %7 = load i64, ptr %6, align 8, !tbaa !427
  %8 = getelementptr inbounds nuw ptr, ptr %5, i64 %7
  ret ptr %8
}

; Function Attrs: mustprogress nounwind uwtable
define linkonce_odr dso_local noundef ptr @_ZNK4Luau8AstArrayIPNS_7AstExprEE5beginEv(ptr noundef nonnull align 8 dereferenceable(16) %0) #4 comdat align 2 {
  %2 = alloca ptr, align 8
  store ptr %0, ptr %2, align 8, !tbaa !345
  %3 = load ptr, ptr %2, align 8
  %4 = getelementptr inbounds nuw %"struct.Luau::AstArray.91", ptr %3, i32 0, i32 0
  %5 = load ptr, ptr %4, align 8, !tbaa !426
  ret ptr %5
}

; Function Attrs: mustprogress uwtable
define dso_local { ptr, ptr } @_ZN4Luau20DataFlowGraphBuilder9visitExprEPNS_19AstExprInterpStringE(ptr noundef nonnull align 8 dereferenceable(336) %0, ptr noundef %1) #2 align 2 {
  %3 = alloca %"struct.Luau::DataFlowResult", align 8
  %4 = alloca ptr, align 8
  %5 = alloca ptr, align 8
  %6 = alloca ptr, align 8
  %7 = alloca ptr, align 8
  %8 = alloca ptr, align 8
  %9 = alloca ptr, align 8
  %10 = alloca %"struct.Luau::DataFlowResult", align 8
  store ptr %0, ptr %4, align 8, !tbaa !154
  store ptr %1, ptr %5, align 8, !tbaa !516
  %11 = load ptr, ptr %4, align 8
  call void @llvm.lifetime.start.p0(i64 8, ptr %6) #17
  %12 = load ptr, ptr %5, align 8, !tbaa !516
  %13 = getelementptr inbounds nuw %"class.Luau::AstExprInterpString", ptr %12, i32 0, i32 2
  store ptr %13, ptr %6, align 8, !tbaa !345
  call void @llvm.lifetime.start.p0(i64 8, ptr %7) #17
  %14 = load ptr, ptr %6, align 8, !tbaa !345
  %15 = call noundef ptr @_ZNK4Luau8AstArrayIPNS_7AstExprEE5beginEv(ptr noundef nonnull align 8 dereferenceable(16) %14)
  store ptr %15, ptr %7, align 8, !tbaa !54
  call void @llvm.lifetime.start.p0(i64 8, ptr %8) #17
  %16 = load ptr, ptr %6, align 8, !tbaa !345
  %17 = call noundef ptr @_ZNK4Luau8AstArrayIPNS_7AstExprEE3endEv(ptr noundef nonnull align 8 dereferenceable(16) %16)
  store ptr %17, ptr %8, align 8, !tbaa !54
  br label %18

18:                                               ; preds = %32, %2
  %19 = load ptr, ptr %7, align 8, !tbaa !54
  %20 = load ptr, ptr %8, align 8, !tbaa !54
  %21 = icmp ne ptr %19, %20
  br i1 %21, label %23, label %22

22:                                               ; preds = %18
  call void @llvm.lifetime.end.p0(i64 8, ptr %8) #17
  call void @llvm.lifetime.end.p0(i64 8, ptr %7) #17
  call void @llvm.lifetime.end.p0(i64 8, ptr %6) #17
  br label %35

23:                                               ; preds = %18
  call void @llvm.lifetime.start.p0(i64 8, ptr %9) #17
  %24 = load ptr, ptr %7, align 8, !tbaa !54
  %25 = load ptr, ptr %24, align 8, !tbaa !46
  store ptr %25, ptr %9, align 8, !tbaa !46
  %26 = load ptr, ptr %9, align 8, !tbaa !46
  %27 = call { ptr, ptr } @_ZN4Luau20DataFlowGraphBuilder9visitExprEPNS_7AstExprE(ptr noundef nonnull align 8 dereferenceable(336) %11, ptr noundef %26)
  %28 = getelementptr inbounds nuw { ptr, ptr }, ptr %10, i32 0, i32 0
  %29 = extractvalue { ptr, ptr } %27, 0
  store ptr %29, ptr %28, align 8
  %30 = getelementptr inbounds nuw { ptr, ptr }, ptr %10, i32 0, i32 1
  %31 = extractvalue { ptr, ptr } %27, 1
  store ptr %31, ptr %30, align 8
  call void @llvm.lifetime.end.p0(i64 8, ptr %9) #17
  br label %32

32:                                               ; preds = %23
  %33 = load ptr, ptr %7, align 8, !tbaa !54
  %34 = getelementptr inbounds nuw ptr, ptr %33, i32 1
  store ptr %34, ptr %7, align 8, !tbaa !54
  br label %18

35:                                               ; preds = %22
  %36 = getelementptr inbounds nuw %"struct.Luau::DataFlowGraphBuilder", ptr %11, i32 0, i32 1
  %37 = call noundef ptr @_ZNK4Luau7NotNullINS_8DefArenaEEptEv(ptr noundef nonnull align 8 dereferenceable(8) %36) #17
  %38 = call ptr @_ZN4Luau8DefArena9freshCellEb(ptr noundef nonnull align 8 dereferenceable(40) %37, i1 noundef zeroext false)
  %39 = getelementptr inbounds nuw %"struct.Luau::NotNull", ptr %3, i32 0, i32 0
  store ptr %38, ptr %39, align 8
  %40 = getelementptr inbounds nuw %"struct.Luau::DataFlowResult", ptr %3, i32 0, i32 1
  store ptr null, ptr %40, align 8, !tbaa !422
  %41 = load { ptr, ptr }, ptr %3, align 8
  ret { ptr, ptr } %41
}