; Function Attrs: mustprogress uwtable
define dso_local { ptr, ptr } @_ZN4Luau20DataFlowGraphBuilder9visitExprEPNS_19AstExprInterpStringE(ptr noundef nonnull align 8 dereferenceable(336) %0, ptr noundef readonly captures(none) %1) local_unnamed_addr #2 align 2 {
  %3 = getelementptr inbounds nuw i8, ptr %1, i64 48
  %4 = load ptr, ptr %3, align 8, !tbaa !250
  %5 = getelementptr inbounds nuw i8, ptr %1, i64 56
  %6 = load i64, ptr %5, align 8, !tbaa !253
  %7 = getelementptr inbounds nuw ptr, ptr %4, i64 %6
  %.not10 = icmp eq i64 %6, 0
  br i1 %.not10, label %._crit_edge, label %.lr.ph

._crit_edge:                                      ; preds = %.lr.ph, %2
  %8 = getelementptr inbounds nuw i8, ptr %0, i64 216
  %9 = load ptr, ptr %8, align 8, !tbaa !182
  %10 = tail call ptr @_ZN4Luau8DefArena9freshCellEb(ptr noundef nonnull align 8 dereferenceable(40) %9, i1 noundef zeroext false)
  %.fca.0.insert = insertvalue { ptr, ptr } poison, ptr %10, 0
  %.fca.1.insert = insertvalue { ptr, ptr } %.fca.0.insert, ptr null, 1
  ret { ptr, ptr } %.fca.1.insert

.lr.ph:                                           ; preds = %2, %.lr.ph
  %.011 = phi ptr [ %13, %.lr.ph ], [ %4, %2 ]
  %11 = load ptr, ptr %.011, align 8, !tbaa !53
  %12 = tail call { ptr, ptr } @_ZN4Luau20DataFlowGraphBuilder9visitExprEPNS_7AstExprE(ptr noundef nonnull align 8 dereferenceable(336) %0, ptr noundef %11)
  %13 = getelementptr inbounds nuw i8, ptr %.011, i64 8
  %.not = icmp eq ptr %13, %7
  br i1 %.not, label %._crit_edge, label %.lr.ph
}